target datalayout = "e-m:e-p270:32:32-p271:32:32-p272:64:64-i64:64-i128:128-f80:128-n8:16:32:64-S128"
target triple = "x86_64-pc-linux-gnu"

@.str.81 = private unnamed_addr constant [11 x i8] c"CV_SUCCESS\00", align 1
@.str.82 = private unnamed_addr constant [16 x i8] c"CV_TSTOP_RETURN\00", align 1
@.str.83 = private unnamed_addr constant [15 x i8] c"CV_ROOT_RETURN\00", align 1
@.str.84 = private unnamed_addr constant [17 x i8] c"CV_TOO_MUCH_WORK\00", align 1
@.str.85 = private unnamed_addr constant [16 x i8] c"CV_TOO_MUCH_ACC\00", align 1
@.str.86 = private unnamed_addr constant [15 x i8] c"CV_ERR_FAILURE\00", align 1
@.str.87 = private unnamed_addr constant [16 x i8] c"CV_CONV_FAILURE\00", align 1
@.str.88 = private unnamed_addr constant [14 x i8] c"CV_LINIT_FAIL\00", align 1
@.str.89 = private unnamed_addr constant [15 x i8] c"CV_LSETUP_FAIL\00", align 1
@.str.90 = private unnamed_addr constant [15 x i8] c"CV_LSOLVE_FAIL\00", align 1
@.str.91 = private unnamed_addr constant [16 x i8] c"CV_RHSFUNC_FAIL\00", align 1
@.str.92 = private unnamed_addr constant [21 x i8] c"CV_FIRST_RHSFUNC_ERR\00", align 1
@.str.93 = private unnamed_addr constant [21 x i8] c"CV_REPTD_RHSFUNC_ERR\00", align 1
@.str.94 = private unnamed_addr constant [21 x i8] c"CV_UNREC_RHSFUNC_ERR\00", align 1
@.str.95 = private unnamed_addr constant [15 x i8] c"CV_RTFUNC_FAIL\00", align 1
@.str.96 = private unnamed_addr constant [12 x i8] c"CV_MEM_FAIL\00", align 1
@.str.97 = private unnamed_addr constant [12 x i8] c"CV_MEM_NULL\00", align 1
@.str.98 = private unnamed_addr constant [13 x i8] c"CV_ILL_INPUT\00", align 1
@.str.99 = private unnamed_addr constant [13 x i8] c"CV_NO_MALLOC\00", align 1
@.str.100 = private unnamed_addr constant [9 x i8] c"CV_BAD_K\00", align 1
@.str.101 = private unnamed_addr constant [9 x i8] c"CV_BAD_T\00", align 1
@.str.102 = private unnamed_addr constant [11 x i8] c"CV_BAD_DKY\00", align 1
@.str.103 = private unnamed_addr constant [13 x i8] c"CV_TOO_CLOSE\00", align 1
@.str.104 = private unnamed_addr constant [17 x i8] c"CV_NLS_INIT_FAIL\00", align 1
@.str.105 = private unnamed_addr constant [19 x i8] c"CV_NLS_SETUPT_FAIL\00", align 1
@.str.106 = private unnamed_addr constant [12 x i8] c"CV_NLS_FAIL\00", align 1
@.str.107 = private unnamed_addr constant [17 x i8] c"CV_PROJ_MEM_NULL\00", align 1
@.str.108 = private unnamed_addr constant [17 x i8] c"CV_PROJFUNC_FAIL\00", align 1
@.str.109 = private unnamed_addr constant [22 x i8] c"CV_REPTD_PROJFUNC_ERR\00", align 1
@.str.110 = private unnamed_addr constant [5 x i8] c"NONE\00", align 1

; Function Attrs: nounwind uwtable
define ptr @CVodeGetReturnFlagName(i64 noundef %0) #0 {
  %2 = alloca i64, align 8
  %3 = alloca ptr, align 8
  store i64 %0, ptr %2, align 8
  %4 = call noalias ptr @malloc(i64 noundef 24) #5
  store ptr %4, ptr %3, align 8
  %5 = load i64, ptr %2, align 8
  switch i64 %5, label %93 [
    i64 0, label %6
    i64 1, label %9
    i64 2, label %12
    i64 -1, label %15
    i64 -2, label %18
    i64 -3, label %21
    i64 -4, label %24
    i64 -5, label %27
    i64 -6, label %30
    i64 -7, label %33
    i64 -8, label %36
    i64 -9, label %39
    i64 -10, label %42
    i64 -11, label %45
    i64 -12, label %48
    i64 -20, label %51
    i64 -21, label %54
    i64 -22, label %57
    i64 -23, label %60
    i64 -24, label %63
    i64 -25, label %66
    i64 -26, label %69
    i64 -27, label %72
    i64 -13, label %75
    i64 -14, label %78
    i64 -16, label %81
    i64 -29, label %84
    i64 -30, label %87
    i64 -31, label %90
  ]

6:                                                ; preds = %1
  %7 = load ptr, ptr %3, align 8
  %8 = call i32 (ptr, ptr, ...) @sprintf(ptr noundef %7, ptr noundef @.str.81) #4
  br label %96

9:                                                ; preds = %1
  %10 = load ptr, ptr %3, align 8
  %11 = call i32 (ptr, ptr, ...) @sprintf(ptr noundef %10, ptr noundef @.str.82) #4
  br label %96

12:                                               ; preds = %1
  %13 = load ptr, ptr %3, align 8
  %14 = call i32 (ptr, ptr, ...) @sprintf(ptr noundef %13, ptr noundef @.str.83) #4
  br label %96

15:                                               ; preds = %1
  %16 = load ptr, ptr %3, align 8
  %17 = call i32 (ptr, ptr, ...) @sprintf(ptr noundef %16, ptr noundef @.str.84) #4
  br label %96

18:                                               ; preds = %1
  %19 = load ptr, ptr %3, align 8
  %20 = call i32 (ptr, ptr, ...) @sprintf(ptr noundef %19, ptr noundef @.str.85) #4
  br label %96

21:                                               ; preds = %1
  %22 = load ptr, ptr %3, align 8
  %23 = call i32 (ptr, ptr, ...) @sprintf(ptr noundef %22, ptr noundef @.str.86) #4
  br label %96

24:                                               ; preds = %1
  %25 = load ptr, ptr %3, align 8
  %26 = call i32 (ptr, ptr, ...) @sprintf(ptr noundef %25, ptr noundef @.str.87) #4
  br label %96

27:                                               ; preds = %1
  %28 = load ptr, ptr %3, align 8
  %29 = call i32 (ptr, ptr, ...) @sprintf(ptr noundef %28, ptr noundef @.str.88) #4
  br label %96

30:                                               ; preds = %1
  %31 = load ptr, ptr %3, align 8
  %32 = call i32 (ptr, ptr, ...) @sprintf(ptr noundef %31, ptr noundef @.str.89) #4
  br label %96

33:                                               ; preds = %1
  %34 = load ptr, ptr %3, align 8
  %35 = call i32 (ptr, ptr, ...) @sprintf(ptr noundef %34, ptr noundef @.str.90) #4
  br label %96

36:                                               ; preds = %1
  %37 = load ptr, ptr %3, align 8
  %38 = call i32 (ptr, ptr, ...) @sprintf(ptr noundef %37, ptr noundef @.str.91) #4
  br label %96

39:                                               ; preds = %1
  %40 = load ptr, ptr %3, align 8
  %41 = call i32 (ptr, ptr, ...) @sprintf(ptr noundef %40, ptr noundef @.str.92) #4
  br label %96

42:                                               ; preds = %1
  %43 = load ptr, ptr %3, align 8
  %44 = call i32 (ptr, ptr, ...) @sprintf(ptr noundef %43, ptr noundef @.str.93) #4
  br label %96

45:                                               ; preds = %1
  %46 = load ptr, ptr %3, align 8
  %47 = call i32 (ptr, ptr, ...) @sprintf(ptr noundef %46, ptr noundef @.str.94) #4
  br label %96

48:                                               ; preds = %1
  %49 = load ptr, ptr %3, align 8
  %50 = call i32 (ptr, ptr, ...) @sprintf(ptr noundef %49, ptr noundef @.str.95) #4
  br label %96

51:                                               ; preds = %1
  %52 = load ptr, ptr %3, align 8
  %53 = call i32 (ptr, ptr, ...) @sprintf(ptr noundef %52, ptr noundef @.str.96) #4
  br label %96

54:                                               ; preds = %1
  %55 = load ptr, ptr %3, align 8
  %56 = call i32 (ptr, ptr, ...) @sprintf(ptr noundef %55, ptr noundef @.str.97) #4
  br label %96

57:                                               ; preds = %1
  %58 = load ptr, ptr %3, align 8
  %59 = call i32 (ptr, ptr, ...) @sprintf(ptr noundef %58, ptr noundef @.str.98) #4
  br label %96

60:                                               ; preds = %1
  %61 = load ptr, ptr %3, align 8
  %62 = call i32 (ptr, ptr, ...) @sprintf(ptr noundef %61, ptr noundef @.str.99) #4
  br label %96

63:                                               ; preds = %1
  %64 = load ptr, ptr %3, align 8
  %65 = call i32 (ptr, ptr, ...) @sprintf(ptr noundef %64, ptr noundef @.str.100) #4
  br label %96

66:                                               ; preds = %1
  %67 = load ptr, ptr %3, align 8
  %68 = call i32 (ptr, ptr, ...) @sprintf(ptr noundef %67, ptr noundef @.str.101) #4
  br label %96

69:                                               ; preds = %1
  %70 = load ptr, ptr %3, align 8
  %71 = call i32 (ptr, ptr, ...) @sprintf(ptr noundef %70, ptr noundef @.str.102) #4
  br label %96

72:                                               ; preds = %1
  %73 = load ptr, ptr %3, align 8
  %74 = call i32 (ptr, ptr, ...) @sprintf(ptr noundef %73, ptr noundef @.str.103) #4
  br label %96

75:                                               ; preds = %1
  %76 = load ptr, ptr %3, align 8
  %77 = call i32 (ptr, ptr, ...) @sprintf(ptr noundef %76, ptr noundef @.str.104) #4
  br label %96

78:                                               ; preds = %1
  %79 = load ptr, ptr %3, align 8
  %80 = call i32 (ptr, ptr, ...) @sprintf(ptr noundef %79, ptr noundef @.str.105) #4
  br label %96

81:                                               ; preds = %1
  %82 = load ptr, ptr %3, align 8
  %83 = call i32 (ptr, ptr, ...) @sprintf(ptr noundef %82, ptr noundef @.str.106) #4
  br label %96

84:                                               ; preds = %1
  %85 = load ptr, ptr %3, align 8
  %86 = call i32 (ptr, ptr, ...) @sprintf(ptr noundef %85, ptr noundef @.str.107) #4
  br label %96

87:                                               ; preds = %1
  %88 = load ptr, ptr %3, align 8
  %89 = call i32 (ptr, ptr, ...) @sprintf(ptr noundef %88, ptr noundef @.str.108) #4
  br label %96

90:                                               ; preds = %1
  %91 = load ptr, ptr %3, align 8
  %92 = call i32 (ptr, ptr, ...) @sprintf(ptr noundef %91, ptr noundef @.str.109) #4
  br label %96

93:                                               ; preds = %1
  %94 = load ptr, ptr %3, align 8
  %95 = call i32 (ptr, ptr, ...) @sprintf(ptr noundef %94, ptr noundef @.str.110) #4
  br label %96

96:                                               ; preds = %93, %90, %87, %84, %81, %78, %75, %72, %69, %66, %63, %60, %57, %54, %51, %48, %45, %42, %39, %36, %33, %30, %27, %24, %21, %18, %15, %12, %9, %6
  %97 = load ptr, ptr %3, align 8
  ret ptr %97
}