; Function Attrs: mustprogress nofree nounwind willreturn memory(readwrite, argmem: none) uwtable
define noalias noundef ptr @CVodeGetReturnFlagName(i64 noundef %0) local_unnamed_addr #3 {
  %2 = tail call noalias dereferenceable_or_null(24) ptr @malloc(i64 noundef 24) #8
  switch i64 %0, label %32 [
    i64 0, label %3
    i64 1, label %4
    i64 2, label %5
    i64 -1, label %6
    i64 -2, label %7
    i64 -3, label %8
    i64 -4, label %9
    i64 -5, label %10
    i64 -6, label %11
    i64 -7, label %12
    i64 -8, label %13
    i64 -9, label %14
    i64 -10, label %15
    i64 -11, label %16
    i64 -12, label %17
    i64 -20, label %18
    i64 -21, label %19
    i64 -22, label %20
    i64 -23, label %21
    i64 -24, label %22
    i64 -25, label %23
    i64 -26, label %24
    i64 -27, label %25
    i64 -13, label %26
    i64 -14, label %27
    i64 -16, label %28
    i64 -29, label %29
    i64 -30, label %30
    i64 -31, label %31
  ]

3:                                                ; preds = %1
  tail call void @llvm.memcpy.p0.p0.i64(ptr noundef nonnull align 1 dereferenceable(11) %2, ptr noundef nonnull align 1 dereferenceable(11) @.str.81, i64 11, i1 false)
  br label %33

4:                                                ; preds = %1
  tail call void @llvm.memcpy.p0.p0.i64(ptr noundef nonnull align 1 dereferenceable(16) %2, ptr noundef nonnull align 1 dereferenceable(16) @.str.82, i64 16, i1 false)
  br label %33

5:                                                ; preds = %1
  tail call void @llvm.memcpy.p0.p0.i64(ptr noundef nonnull align 1 dereferenceable(15) %2, ptr noundef nonnull align 1 dereferenceable(15) @.str.83, i64 15, i1 false)
  br label %33

6:                                                ; preds = %1
  tail call void @llvm.memcpy.p0.p0.i64(ptr noundef nonnull align 1 dereferenceable(17) %2, ptr noundef nonnull align 1 dereferenceable(17) @.str.84, i64 17, i1 false)
  br label %33

7:                                                ; preds = %1
  tail call void @llvm.memcpy.p0.p0.i64(ptr noundef nonnull align 1 dereferenceable(16) %2, ptr noundef nonnull align 1 dereferenceable(16) @.str.85, i64 16, i1 false)
  br label %33

8:                                                ; preds = %1
  tail call void @llvm.memcpy.p0.p0.i64(ptr noundef nonnull align 1 dereferenceable(15) %2, ptr noundef nonnull align 1 dereferenceable(15) @.str.86, i64 15, i1 false)
  br label %33

9:                                                ; preds = %1
  tail call void @llvm.memcpy.p0.p0.i64(ptr noundef nonnull align 1 dereferenceable(16) %2, ptr noundef nonnull align 1 dereferenceable(16) @.str.87, i64 16, i1 false)
  br label %33

10:                                               ; preds = %1
  tail call void @llvm.memcpy.p0.p0.i64(ptr noundef nonnull align 1 dereferenceable(14) %2, ptr noundef nonnull align 1 dereferenceable(14) @.str.88, i64 14, i1 false)
  br label %33

11:                                               ; preds = %1
  tail call void @llvm.memcpy.p0.p0.i64(ptr noundef nonnull align 1 dereferenceable(15) %2, ptr noundef nonnull align 1 dereferenceable(15) @.str.89, i64 15, i1 false)
  br label %33

12:                                               ; preds = %1
  tail call void @llvm.memcpy.p0.p0.i64(ptr noundef nonnull align 1 dereferenceable(15) %2, ptr noundef nonnull align 1 dereferenceable(15) @.str.90, i64 15, i1 false)
  br label %33

13:                                               ; preds = %1
  tail call void @llvm.memcpy.p0.p0.i64(ptr noundef nonnull align 1 dereferenceable(16) %2, ptr noundef nonnull align 1 dereferenceable(16) @.str.91, i64 16, i1 false)
  br label %33

14:                                               ; preds = %1
  tail call void @llvm.memcpy.p0.p0.i64(ptr noundef nonnull align 1 dereferenceable(21) %2, ptr noundef nonnull align 1 dereferenceable(21) @.str.92, i64 21, i1 false)
  br label %33

15:                                               ; preds = %1
  tail call void @llvm.memcpy.p0.p0.i64(ptr noundef nonnull align 1 dereferenceable(21) %2, ptr noundef nonnull align 1 dereferenceable(21) @.str.93, i64 21, i1 false)
  br label %33

16:                                               ; preds = %1
  tail call void @llvm.memcpy.p0.p0.i64(ptr noundef nonnull align 1 dereferenceable(21) %2, ptr noundef nonnull align 1 dereferenceable(21) @.str.94, i64 21, i1 false)
  br label %33

17:                                               ; preds = %1
  tail call void @llvm.memcpy.p0.p0.i64(ptr noundef nonnull align 1 dereferenceable(15) %2, ptr noundef nonnull align 1 dereferenceable(15) @.str.95, i64 15, i1 false)
  br label %33

18:                                               ; preds = %1
  tail call void @llvm.memcpy.p0.p0.i64(ptr noundef nonnull align 1 dereferenceable(12) %2, ptr noundef nonnull align 1 dereferenceable(12) @.str.96, i64 12, i1 false)
  br label %33

19:                                               ; preds = %1
  tail call void @llvm.memcpy.p0.p0.i64(ptr noundef nonnull align 1 dereferenceable(12) %2, ptr noundef nonnull align 1 dereferenceable(12) @.str.97, i64 12, i1 false)
  br label %33

20:                                               ; preds = %1
  tail call void @llvm.memcpy.p0.p0.i64(ptr noundef nonnull align 1 dereferenceable(13) %2, ptr noundef nonnull align 1 dereferenceable(13) @.str.98, i64 13, i1 false)
  br label %33

21:                                               ; preds = %1
  tail call void @llvm.memcpy.p0.p0.i64(ptr noundef nonnull align 1 dereferenceable(13) %2, ptr noundef nonnull align 1 dereferenceable(13) @.str.99, i64 13, i1 false)
  br label %33

22:                                               ; preds = %1
  tail call void @llvm.memcpy.p0.p0.i64(ptr noundef nonnull align 1 dereferenceable(9) %2, ptr noundef nonnull align 1 dereferenceable(9) @.str.100, i64 9, i1 false)
  br label %33

23:                                               ; preds = %1
  tail call void @llvm.memcpy.p0.p0.i64(ptr noundef nonnull align 1 dereferenceable(9) %2, ptr noundef nonnull align 1 dereferenceable(9) @.str.101, i64 9, i1 false)
  br label %33

24:                                               ; preds = %1
  tail call void @llvm.memcpy.p0.p0.i64(ptr noundef nonnull align 1 dereferenceable(11) %2, ptr noundef nonnull align 1 dereferenceable(11) @.str.102, i64 11, i1 false)
  br label %33

25:                                               ; preds = %1
  tail call void @llvm.memcpy.p0.p0.i64(ptr noundef nonnull align 1 dereferenceable(13) %2, ptr noundef nonnull align 1 dereferenceable(13) @.str.103, i64 13, i1 false)
  br label %33

26:                                               ; preds = %1
  tail call void @llvm.memcpy.p0.p0.i64(ptr noundef nonnull align 1 dereferenceable(17) %2, ptr noundef nonnull align 1 dereferenceable(17) @.str.104, i64 17, i1 false)
  br label %33

27:                                               ; preds = %1
  tail call void @llvm.memcpy.p0.p0.i64(ptr noundef nonnull align 1 dereferenceable(19) %2, ptr noundef nonnull align 1 dereferenceable(19) @.str.105, i64 19, i1 false)
  br label %33

28:                                               ; preds = %1
  tail call void @llvm.memcpy.p0.p0.i64(ptr noundef nonnull align 1 dereferenceable(12) %2, ptr noundef nonnull align 1 dereferenceable(12) @.str.106, i64 12, i1 false)
  br label %33

29:                                               ; preds = %1
  tail call void @llvm.memcpy.p0.p0.i64(ptr noundef nonnull align 1 dereferenceable(17) %2, ptr noundef nonnull align 1 dereferenceable(17) @.str.107, i64 17, i1 false)
  br label %33

30:                                               ; preds = %1
  tail call void @llvm.memcpy.p0.p0.i64(ptr noundef nonnull align 1 dereferenceable(17) %2, ptr noundef nonnull align 1 dereferenceable(17) @.str.108, i64 17, i1 false)
  br label %33

31:                                               ; preds = %1
  tail call void @llvm.memcpy.p0.p0.i64(ptr noundef nonnull align 1 dereferenceable(22) %2, ptr noundef nonnull align 1 dereferenceable(22) @.str.109, i64 22, i1 false)
  br label %33

32:                                               ; preds = %1
  tail call void @llvm.memcpy.p0.p0.i64(ptr noundef nonnull align 1 dereferenceable(5) %2, ptr noundef nonnull align 1 dereferenceable(5) @.str.110, i64 5, i1 false)
  br label %33

33:                                               ; preds = %32, %31, %30, %29, %28, %27, %26, %25, %24, %23, %22, %21, %20, %19, %18, %17, %16, %15, %14, %13, %12, %11, %10, %9, %8, %7, %6, %5, %4, %3
  ret ptr %2
}